(dp1
S'output'
p2
S"<class 'bson.errors.InvalidDocument'> Cannot encode object: <applications.piiui.modules.helper.Rule instance at 0x10d27b6c8>"
p3
sS'layer'
p4
S'/Users/sky/Desktop/web2py/applications/piiui/controllers/default.py'
p5
sS'code'
p6
S'import json\n\n# -*- coding: utf-8 -*-\n# this file is released under public domain and you can use without limitations\n\n#########################################################################\n## This is a sample controller\n## - index is the default action of any application\n## - user is required for authentication and authorization\n## - download is for downloading files uploaded in the db (does streaming)\n## - call exposes all registered services (none by default)\n#########################################################################\n\nhelper = local_import("helper")\n\ndef index():\n    tweet, session.tweet = helper.getTweet()\n    return dict(message=XML(tweet))\n\ndef back():\n    lis = json.loads(request.vars.arr)\n    lis.sort()\n\n    lis = map(lambda x: [session.tweet[x], \'op2\', \'op3\'], lis)\n\n\n    return  json.dumps({"arr":json.dumps(lis)})\n\ndef nextrule():\n    lis = request.vars.words.split(\',\')\n    roots = request.vars.base.split(\',\')\n    paired = []\n    for i in xrange(len(lis)):\n        paired += [(lis[i] == roots[i], lis[i])]\n    rule = helper.Rule(paired)\n    helper.store(rule)\n    print len(rule.words)\n\n\n\ndef user():\n    """\n    exposes:\n    http://..../[app]/default/user/login\n    http://..../[app]/default/user/logout\n    http://..../[app]/default/user/register\n    http://..../[app]/default/user/profile\n    http://..../[app]/default/user/retrieve_password\n    http://..../[app]/default/user/change_password\n    http://..../[app]/default/user/manage_users (requires membership in\n    use @auth.requires_login()\n        @auth.requires_membership(\'group name\')\n        @auth.requires_permission(\'read\',\'table name\',record_id)\n    to decorate functions that need access control\n    """\n    return dict(form=auth())\n\n@cache.action()\ndef download():\n    """\n    allows downloading of uploaded files\n    http://..../[app]/default/download/[filename]\n    """\n    return response.download(request, db)\n\n\ndef call():\n    """\n    exposes services. for example:\n    http://..../[app]/default/call/jsonrpc\n    decorate with @services.jsonrpc the functions to expose\n    supports xml, json, xmlrpc, jsonrpc, amfrpc, rss, csv\n    """\n    return service()\n\n\n@auth.requires_signature()\ndef data():\n    """\n    http://..../[app]/default/data/tables\n    http://..../[app]/default/data/create/[table]\n    http://..../[app]/default/data/read/[table]/[id]\n    http://..../[app]/default/data/update/[table]/[id]\n    http://..../[app]/default/data/delete/[table]/[id]\n    http://..../[app]/default/data/select/[table]\n    http://..../[app]/default/data/search/[table]\n    but URLs must be signed, i.e. linked with\n      A(\'table\',_href=URL(\'data/tables\',user_signature=True))\n    or with the signed load operator\n      LOAD(\'default\',\'data.load\',args=\'tables\',ajax=True,user_signature=True)\n    """\n    return dict(form=crud())\n\nresponse._vars=response._caller(nextrule)\n'
p7
sS'snapshot'
p8
(dp9
sS'traceback'
p10
S'Traceback (most recent call last):\n  File "/Users/sky/Desktop/web2py/gluon/restricted.py", line 220, in restricted\n    exec ccode in environment\n  File "/Users/sky/Desktop/web2py/applications/piiui/controllers/default.py", line 94, in <module>\n  File "/Users/sky/Desktop/web2py/gluon/globals.py", line 385, in <lambda>\n    self._caller = lambda f: f()\n  File "/Users/sky/Desktop/web2py/applications/piiui/controllers/default.py", line 36, in nextrule\n    helper.store(rule)\n  File "applications/piiui/modules/helper.py", line 61, in store\n    if rdb.find({"rule" : rule}).count() > 0:\n  File "build/bdist.macosx-10.9-intel/egg/pymongo/cursor.py", line 747, in count\n    **command)\n  File "build/bdist.macosx-10.9-intel/egg/pymongo/database.py", line 437, in command\n    uuid_subtype, compile_re, **kwargs)[0]\n  File "build/bdist.macosx-10.9-intel/egg/pymongo/database.py", line 337, in _command\n    for doc in cursor:\n  File "build/bdist.macosx-10.9-intel/egg/pymongo/cursor.py", line 1038, in next\n    if len(self.__data) or self._refresh():\n  File "build/bdist.macosx-10.9-intel/egg/pymongo/cursor.py", line 982, in _refresh\n    self.__uuid_subtype))\nInvalidDocument: Cannot encode object: <applications.piiui.modules.helper.Rule instance at 0x10d27b6c8>\n'
p11
s.